#include <math.h>
#include <stdio.h>
#include <stdlib.h>
#include <string.h>

int main()
{ 
 int a,b,c,d,e,f,g;
 scanf("%d",&a);
b=a/10000;
c=(a-b*10000)/1000;
d=a/100-(a/1000)*10;
e=a/10-(a/100)*10;
f=a-(a/10)*10;
if(b!=0)
{g=f*10000+e*1000+d*100+c*10+b;
printf("%05d",g);}
else 
if(c!=0)
{g=f*1000+e*100+d*10+c;
printf("%04d",g);}
else
if(d!=0)
{g=f*100+e*10+d;
printf("%03d",g);}
else
if(e!=0)
{g=f*10+e;
printf("%01d",g);}
else
{g=f;
printf("%d",g);}
return 0;
}