; ModuleID = '16/208.c'
source_filename = "16/208.c"
target datalayout = "e-m:e-p270:32:32-p271:32:32-p272:64:64-i64:64-f80:128-n8:16:32:64-S128"
target triple = "x86_64-pc-linux-gnu"

@.str = private unnamed_addr constant [3 x i8] c"%d\00", align 1
@.str.1 = private unnamed_addr constant [5 x i8] c"%05d\00", align 1
@.str.2 = private unnamed_addr constant [5 x i8] c"%04d\00", align 1
@.str.3 = private unnamed_addr constant [5 x i8] c"%03d\00", align 1
@.str.4 = private unnamed_addr constant [5 x i8] c"%01d\00", align 1

; Function Attrs: noinline nounwind uwtable
define dso_local i32 @main() #0 {
  %1 = alloca i32, align 4
  %2 = alloca i32, align 4
  %3 = alloca i32, align 4
  %4 = alloca i32, align 4
  %5 = alloca i32, align 4
  %6 = alloca i32, align 4
  %7 = alloca i32, align 4
  %8 = alloca i32, align 4
  store i32 0, i32* %1, align 4
  %9 = call i32 (i8*, ...) @__isoc99_scanf(i8* getelementptr inbounds ([3 x i8], [3 x i8]* @.str, i64 0, i64 0), i32* %2)
  %10 = load i32, i32* %2, align 4
  %11 = sdiv i32 %10, 10000
  store i32 %11, i32* %3, align 4
  %12 = load i32, i32* %2, align 4
  %13 = load i32, i32* %3, align 4
  %14 = mul nsw i32 %13, 10000
  %15 = sub nsw i32 %12, %14
  %16 = sdiv i32 %15, 1000
  store i32 %16, i32* %4, align 4
  %17 = load i32, i32* %2, align 4
  %18 = sdiv i32 %17, 100
  %19 = load i32, i32* %2, align 4
  %20 = sdiv i32 %19, 1000
  %21 = mul nsw i32 %20, 10
  %22 = sub nsw i32 %18, %21
  store i32 %22, i32* %5, align 4
  %23 = load i32, i32* %2, align 4
  %24 = sdiv i32 %23, 10
  %25 = load i32, i32* %2, align 4
  %26 = sdiv i32 %25, 100
  %27 = mul nsw i32 %26, 10
  %28 = sub nsw i32 %24, %27
  store i32 %28, i32* %6, align 4
  %29 = load i32, i32* %2, align 4
  %30 = load i32, i32* %2, align 4
  %31 = sdiv i32 %30, 10
  %32 = mul nsw i32 %31, 10
  %33 = sub nsw i32 %29, %32
  store i32 %33, i32* %7, align 4
  %34 = load i32, i32* %3, align 4
  %35 = icmp ne i32 %34, 0
  br i1 %35, label %36, label %52

36:                                               ; preds = %0
  %37 = load i32, i32* %7, align 4
  %38 = mul nsw i32 %37, 10000
  %39 = load i32, i32* %6, align 4
  %40 = mul nsw i32 %39, 1000
  %41 = add nsw i32 %38, %40
  %42 = load i32, i32* %5, align 4
  %43 = mul nsw i32 %42, 100
  %44 = add nsw i32 %41, %43
  %45 = load i32, i32* %4, align 4
  %46 = mul nsw i32 %45, 10
  %47 = add nsw i32 %44, %46
  %48 = load i32, i32* %3, align 4
  %49 = add nsw i32 %47, %48
  store i32 %49, i32* %8, align 4
  %50 = load i32, i32* %8, align 4
  %51 = call i32 (i8*, ...) @printf(i8* getelementptr inbounds ([5 x i8], [5 x i8]* @.str.1, i64 0, i64 0), i32 %50)
  br label %98

52:                                               ; preds = %0
  %53 = load i32, i32* %4, align 4
  %54 = icmp ne i32 %53, 0
  br i1 %54, label %55, label %68

55:                                               ; preds = %52
  %56 = load i32, i32* %7, align 4
  %57 = mul nsw i32 %56, 1000
  %58 = load i32, i32* %6, align 4
  %59 = mul nsw i32 %58, 100
  %60 = add nsw i32 %57, %59
  %61 = load i32, i32* %5, align 4
  %62 = mul nsw i32 %61, 10
  %63 = add nsw i32 %60, %62
  %64 = load i32, i32* %4, align 4
  %65 = add nsw i32 %63, %64
  store i32 %65, i32* %8, align 4
  %66 = load i32, i32* %8, align 4
  %67 = call i32 (i8*, ...) @printf(i8* getelementptr inbounds ([5 x i8], [5 x i8]* @.str.2, i64 0, i64 0), i32 %66)
  br label %97

68:                                               ; preds = %52
  %69 = load i32, i32* %5, align 4
  %70 = icmp ne i32 %69, 0
  br i1 %70, label %71, label %81

71:                                               ; preds = %68
  %72 = load i32, i32* %7, align 4
  %73 = mul nsw i32 %72, 100
  %74 = load i32, i32* %6, align 4
  %75 = mul nsw i32 %74, 10
  %76 = add nsw i32 %73, %75
  %77 = load i32, i32* %5, align 4
  %78 = add nsw i32 %76, %77
  store i32 %78, i32* %8, align 4
  %79 = load i32, i32* %8, align 4
  %80 = call i32 (i8*, ...) @printf(i8* getelementptr inbounds ([5 x i8], [5 x i8]* @.str.3, i64 0, i64 0), i32 %79)
  br label %96

81:                                               ; preds = %68
  %82 = load i32, i32* %6, align 4
  %83 = icmp ne i32 %82, 0
  br i1 %83, label %84, label %91

84:                                               ; preds = %81
  %85 = load i32, i32* %7, align 4
  %86 = mul nsw i32 %85, 10
  %87 = load i32, i32* %6, align 4
  %88 = add nsw i32 %86, %87
  store i32 %88, i32* %8, align 4
  %89 = load i32, i32* %8, align 4
  %90 = call i32 (i8*, ...) @printf(i8* getelementptr inbounds ([5 x i8], [5 x i8]* @.str.4, i64 0, i64 0), i32 %89)
  br label %95

91:                                               ; preds = %81
  %92 = load i32, i32* %7, align 4
  store i32 %92, i32* %8, align 4
  %93 = load i32, i32* %8, align 4
  %94 = call i32 (i8*, ...) @printf(i8* getelementptr inbounds ([3 x i8], [3 x i8]* @.str, i64 0, i64 0), i32 %93)
  br label %95

95:                                               ; preds = %91, %84
  br label %96

96:                                               ; preds = %95, %71
  br label %97

97:                                               ; preds = %96, %55
  br label %98

98:                                               ; preds = %97, %36
  ret i32 0
}

declare dso_local i32 @__isoc99_scanf(i8*, ...) #1

declare dso_local i32 @printf(i8*, ...) #1


!llvm.module.flags = !{!0}
!llvm.ident = !{!1}

!0 = !{i32 1, !"wchar_size", i32 4}
!1 = !{!"clang version 10.0.0-4ubuntu1 "}
